; Function Attrs: nounwind uwtable
define i32 @cli_bcapi_json_get_boolean(ptr nocapture noundef %0, i32 noundef %1) local_unnamed_addr #1 {
  %3 = getelementptr inbounds i8, ptr %0, i64 1088
  %4 = load ptr, ptr %3, align 8
  %5 = getelementptr inbounds i8, ptr %4, i64 152
  %6 = load ptr, ptr %5, align 8
  %.not.i.not = icmp eq ptr %6, null
  br i1 %.not.i.not, label %30, label %7

7:                                                ; preds = %2
  %8 = getelementptr inbounds i8, ptr %0, i64 1336
  %9 = load i32, ptr %8, align 8
  %10 = icmp eq i32 %9, 0
  br i1 %10, label %11, label %18

11:                                               ; preds = %7
  %12 = getelementptr inbounds i8, ptr %0, i64 1328
  %13 = load ptr, ptr %12, align 8
  %14 = tail call ptr @cli_max_realloc(ptr noundef %13, i64 noundef 8) #29
  %.not.i13 = icmp eq ptr %14, null
  br i1 %.not.i13, label %cli_bcapi_json_objs_init.exit, label %cli_bcapi_json_objs_init.exit.thread

cli_bcapi_json_objs_init.exit.thread:             ; preds = %11
  store ptr %14, ptr %12, align 8
  store i32 1, ptr %8, align 8
  %15 = load ptr, ptr %5, align 8
  store ptr %15, ptr %14, align 8
  br label %18

cli_bcapi_json_objs_init.exit:                    ; preds = %11
  %16 = getelementptr inbounds i8, ptr %0, i64 1312
  %17 = load ptr, ptr %16, align 8
  tail call void @cli_event_error_oom(ptr noundef %17, i32 noundef 0) #29
  br label %30

18:                                               ; preds = %cli_bcapi_json_objs_init.exit.thread, %7
  %19 = getelementptr inbounds i8, ptr %0, i64 1328
  %20 = load ptr, ptr %19, align 8
  %21 = icmp slt i32 %1, 0
  br i1 %21, label %24, label %22

22:                                               ; preds = %18
  %23 = load i32, ptr %8, align 8
  %.not12 = icmp ugt i32 %23, %1
  br i1 %.not12, label %25, label %24

24:                                               ; preds = %22, %18
  tail call void (ptr, ...) @cli_dbgmsg(ptr noundef nonnull @.str.132) #29
  br label %30

25:                                               ; preds = %22
  %26 = zext nneg i32 %1 to i64
  %27 = getelementptr inbounds ptr, ptr %20, i64 %26
  %28 = load ptr, ptr %27, align 8
  %29 = tail call i32 @json_object_get_boolean(ptr noundef %28) #29
  br label %30

30:                                               ; preds = %cli_bcapi_json_objs_init.exit, %2, %25, %24
  %.0 = phi i32 [ -1, %24 ], [ %29, %25 ], [ -1, %2 ], [ -1, %cli_bcapi_json_objs_init.exit ]
  ret i32 %.0
}